target datalayout = "e-m:e-p270:32:32-p271:32:32-p272:64:64-i64:64-i128:128-f80:128-n8:16:32:64-S128"
target triple = "x86_64-pc-linux-gnu"

%struct._AwtScreenData = type { i32, i64, i64, i64, ptr, ptr }

@x11Screens = hidden global ptr null, align 8
@jvm = external global ptr, align 8

; Function Attrs: nounwind uwtable
define internal void @ensureConfigsInited(ptr noundef %0, i32 noundef %1) #0 {
  %3 = alloca ptr, align 8
  %4 = alloca i32, align 4
  store ptr %0, ptr %3, align 8
  store i32 %1, ptr %4, align 4
  %5 = load ptr, ptr @x11Screens, align 8
  %6 = load i32, ptr %4, align 4
  %7 = sext i32 %6 to i64
  %8 = getelementptr inbounds %struct._AwtScreenData, ptr %5, i64 %7
  %9 = getelementptr inbounds %struct._AwtScreenData, ptr %8, i32 0, i32 0
  %10 = load i32, ptr %9, align 8
  %11 = icmp eq i32 %10, 0
  br i1 %11, label %12, label %25

12:                                               ; preds = %2
  %13 = load ptr, ptr %3, align 8
  %14 = icmp eq ptr %13, null
  br i1 %14, label %15, label %18

15:                                               ; preds = %12
  %16 = load ptr, ptr @jvm, align 8
  %17 = call ptr @JNU_GetEnv(ptr noundef %16, i32 noundef 65538)
  store ptr %17, ptr %3, align 8
  br label %18

18:                                               ; preds = %15, %12
  %19 = load ptr, ptr %3, align 8
  %20 = load i32, ptr %4, align 4
  %21 = load ptr, ptr @x11Screens, align 8
  %22 = load i32, ptr %4, align 4
  %23 = sext i32 %22 to i64
  %24 = getelementptr inbounds %struct._AwtScreenData, ptr %21, i64 %23
  call void @getAllConfigs(ptr noundef %19, i32 noundef %20, ptr noundef %24)
  br label %25

25:                                               ; preds = %18, %2
  ret void
}

; Function Attrs: nounwind uwtable
define i32 @Java_sun_awt_X11GraphicsDevice_getNumConfigs(ptr noundef %0, ptr noundef %1, i32 noundef %2) #0 {
  %4 = alloca ptr, align 8
  %5 = alloca ptr, align 8
  %6 = alloca i32, align 4
  store ptr %0, ptr %4, align 8
  store ptr %1, ptr %5, align 8
  store i32 %2, ptr %6, align 4
  %7 = load ptr, ptr %4, align 8
  %8 = load i32, ptr %6, align 4
  call void @ensureConfigsInited(ptr noundef %7, i32 noundef %8)
  %9 = load ptr, ptr @x11Screens, align 8
  %10 = load i32, ptr %6, align 4
  %11 = sext i32 %10 to i64
  %12 = getelementptr inbounds %struct._AwtScreenData, ptr %9, i64 %11
  %13 = getelementptr inbounds %struct._AwtScreenData, ptr %12, i32 0, i32 0
  %14 = load i32, ptr %13, align 8
  ret i32 %14
}