; Function Attrs: nounwind uwtable
define i32 @Java_sun_awt_X11GraphicsDevice_getNumConfigs(ptr noundef %0, ptr nocapture noundef readnone %1, i32 noundef %2) local_unnamed_addr #0 {
  %4 = load ptr, ptr @x11Screens, align 8
  %5 = sext i32 %2 to i64
  %6 = getelementptr inbounds %struct._AwtScreenData, ptr %4, i64 %5
  %7 = load i32, ptr %6, align 8
  %8 = icmp eq i32 %7, 0
  br i1 %8, label %9, label %ensureConfigsInited.exit

9:                                                ; preds = %3
  %10 = icmp eq ptr %0, null
  br i1 %10, label %11, label %14

11:                                               ; preds = %9
  %12 = load ptr, ptr @jvm, align 8
  %13 = tail call ptr @JNU_GetEnv(ptr noundef %12, i32 noundef 65538) #17
  %.pre.i = load ptr, ptr @x11Screens, align 8
  br label %14

14:                                               ; preds = %11, %9
  %15 = phi ptr [ %.pre.i, %11 ], [ %4, %9 ]
  %.0.i = phi ptr [ %13, %11 ], [ %0, %9 ]
  %16 = getelementptr inbounds %struct._AwtScreenData, ptr %15, i64 %5
  tail call fastcc void @getAllConfigs(ptr noundef %.0.i, i32 noundef %2, ptr noundef %16)
  %.pre = load ptr, ptr @x11Screens, align 8
  %.phi.trans.insert = getelementptr inbounds %struct._AwtScreenData, ptr %.pre, i64 %5
  %.pre2 = load i32, ptr %.phi.trans.insert, align 8
  br label %ensureConfigsInited.exit

ensureConfigsInited.exit:                         ; preds = %3, %14
  %17 = phi i32 [ %7, %3 ], [ %.pre2, %14 ]
  ret i32 %17
}